target datalayout = "e-m:e-p270:32:32-p271:32:32-p272:64:64-i64:64-i128:128-f80:128-n8:16:32:64-S128"
target triple = "x86_64-pc-linux-gnu"

@.str = private unnamed_addr constant [30 x i8] c"REPLAYGAIN_REFERENCE_LOUDNESS\00", align 1
@.str.5 = private unnamed_addr constant [24 x i8] c"memory allocation error\00", align 1
@reference_format_ = internal global ptr @.str.9, align 8
@ReplayGainReferenceLoudness = external global float, align 4

; Function Attrs: nounwind sspstrong uwtable
define dso_local ptr @grabbag__replaygain_store_to_vorbiscomment_reference(ptr noundef %0) #0 {
  %2 = alloca ptr, align 8
  %3 = alloca ptr, align 8
  store ptr %0, ptr %3, align 8, !tbaa !44
  %4 = load ptr, ptr %3, align 8, !tbaa !44
  %5 = call i32 @FLAC__metadata_object_vorbiscomment_remove_entries_matching(ptr noundef %4, ptr noundef @.str)
  %6 = icmp slt i32 %5, 0
  br i1 %6, label %7, label %8

7:                                                ; preds = %1
  store ptr @.str.5, ptr %2, align 8
  br label %16

8:                                                ; preds = %1
  %9 = load ptr, ptr %3, align 8, !tbaa !44
  %10 = load ptr, ptr @reference_format_, align 8, !tbaa !28
  %11 = load float, ptr @ReplayGainReferenceLoudness, align 4, !tbaa !15
  %12 = call i32 @append_tag_(ptr noundef %9, ptr noundef %10, ptr noundef @.str, float noundef %11)
  %13 = icmp ne i32 %12, 0
  br i1 %13, label %15, label %14

14:                                               ; preds = %8
  store ptr @.str.5, ptr %2, align 8
  br label %16

15:                                               ; preds = %8
  store ptr null, ptr %2, align 8
  br label %16

16:                                               ; preds = %15, %14, %7
  %17 = load ptr, ptr %2, align 8
  ret ptr %17
}

; Function Attrs: nounwind sspstrong uwtable
define dso_local ptr @grabbag__replaygain_store_to_file_reference(ptr noundef %0, i32 noundef %1) #0 {
  %3 = alloca ptr, align 8
  %4 = alloca ptr, align 8
  %5 = alloca i32, align 4
  %6 = alloca ptr, align 8
  %7 = alloca ptr, align 8
  %8 = alloca ptr, align 8
  %9 = alloca i32, align 4
  store ptr %0, ptr %4, align 8, !tbaa !28
  store i32 %1, ptr %5, align 4, !tbaa !4
  call void @llvm.lifetime.start.p0(i64 8, ptr %6) #8
  call void @llvm.lifetime.start.p0(i64 8, ptr %7) #8
  store ptr null, ptr %7, align 8, !tbaa !44
  call void @llvm.lifetime.start.p0(i64 8, ptr %8) #8
  %10 = load ptr, ptr %4, align 8, !tbaa !28
  %11 = call ptr @store_to_file_pre_(ptr noundef %10, ptr noundef %6, ptr noundef %7)
  store ptr %11, ptr %8, align 8, !tbaa !28
  %12 = icmp ne ptr null, %11
  br i1 %12, label %13, label %15

13:                                               ; preds = %2
  %14 = load ptr, ptr %8, align 8, !tbaa !28
  store ptr %14, ptr %3, align 8
  store i32 1, ptr %9, align 4
  br label %31

15:                                               ; preds = %2
  %16 = load ptr, ptr %7, align 8, !tbaa !44
  %17 = call ptr @grabbag__replaygain_store_to_vorbiscomment_reference(ptr noundef %16)
  store ptr %17, ptr %8, align 8, !tbaa !28
  %18 = icmp ne ptr null, %17
  br i1 %18, label %19, label %22

19:                                               ; preds = %15
  %20 = load ptr, ptr %6, align 8, !tbaa !52
  call void @FLAC__metadata_chain_delete(ptr noundef %20)
  %21 = load ptr, ptr %8, align 8, !tbaa !28
  store ptr %21, ptr %3, align 8
  store i32 1, ptr %9, align 4
  br label %31

22:                                               ; preds = %15
  %23 = load ptr, ptr %4, align 8, !tbaa !28
  %24 = load ptr, ptr %6, align 8, !tbaa !52
  %25 = load i32, ptr %5, align 4, !tbaa !4
  %26 = call ptr @store_to_file_post_(ptr noundef %23, ptr noundef %24, i32 noundef %25)
  store ptr %26, ptr %8, align 8, !tbaa !28
  %27 = icmp ne ptr null, %26
  br i1 %27, label %28, label %30

28:                                               ; preds = %22
  %29 = load ptr, ptr %8, align 8, !tbaa !28
  store ptr %29, ptr %3, align 8
  store i32 1, ptr %9, align 4
  br label %31

30:                                               ; preds = %22
  store ptr null, ptr %3, align 8
  store i32 1, ptr %9, align 4
  br label %31

31:                                               ; preds = %30, %28, %19, %13
  call void @llvm.lifetime.end.p0(i64 8, ptr %8) #8
  call void @llvm.lifetime.end.p0(i64 8, ptr %7) #8
  call void @llvm.lifetime.end.p0(i64 8, ptr %6) #8
  %32 = load ptr, ptr %3, align 8
  ret ptr %32
}