; Function Attrs: nounwind sspstrong uwtable
define dso_local ptr @grabbag__replaygain_store_to_file_reference(ptr noundef %0, i32 noundef %1) local_unnamed_addr #0 {
  %3 = alloca ptr, align 8
  %4 = alloca ptr, align 8
  call void @llvm.lifetime.start.p0(i64 8, ptr nonnull %3) #14
  call void @llvm.lifetime.start.p0(i64 8, ptr nonnull %4) #14
  store ptr null, ptr %4, align 8, !tbaa !40
  %5 = call fastcc ptr @store_to_file_pre_(ptr noundef %0, ptr noundef %3, ptr noundef %4)
  %.not = icmp eq ptr %5, null
  br i1 %.not, label %6, label %16

6:                                                ; preds = %2
  %7 = load ptr, ptr %4, align 8, !tbaa !40
  %8 = tail call i32 @FLAC__metadata_object_vorbiscomment_remove_entries_matching(ptr noundef %7, ptr noundef nonnull @.str) #14
  %9 = icmp slt i32 %8, 0
  br i1 %9, label %select.unfold, label %10

10:                                               ; preds = %6
  %11 = load float, ptr @ReplayGainReferenceLoudness, align 4, !tbaa !13
  %12 = tail call fastcc i32 @append_tag_(ptr noundef %7, ptr noundef nonnull @.str.9, ptr noundef nonnull @.str, float noundef %11)
  %.not.i = icmp eq i32 %12, 0
  br i1 %.not.i, label %select.unfold, label %grabbag__replaygain_store_to_vorbiscomment_reference.exit

select.unfold:                                    ; preds = %10, %6
  %13 = load ptr, ptr %3, align 8, !tbaa !42
  tail call void @FLAC__metadata_chain_delete(ptr noundef %13) #14
  br label %16

grabbag__replaygain_store_to_vorbiscomment_reference.exit: ; preds = %10
  %14 = load ptr, ptr %3, align 8, !tbaa !42
  %15 = tail call fastcc ptr @store_to_file_post_(ptr noundef %0, ptr noundef %14, i32 noundef %1)
  br label %16

16:                                               ; preds = %grabbag__replaygain_store_to_vorbiscomment_reference.exit, %2, %select.unfold
  %.0 = phi ptr [ @.str.5, %select.unfold ], [ %5, %2 ], [ %15, %grabbag__replaygain_store_to_vorbiscomment_reference.exit ]
  call void @llvm.lifetime.end.p0(i64 8, ptr nonnull %4) #14
  call void @llvm.lifetime.end.p0(i64 8, ptr nonnull %3) #14
  ret ptr %.0
}